target datalayout = "e-m:e-p270:32:32-p271:32:32-p272:64:64-i64:64-i128:128-f80:128-n8:16:32:64-S128"
target triple = "x86_64-pc-linux-gnu"

%struct.re_pattern_buffer = type { ptr, ptr, ptr, i32, i32, ptr, ptr, i32, i32, i32, i32, i32, i32, i32, i32, i32, ptr, ptr, i32, ptr, i32, ptr, i32, i32, i32, i32, i32, i32, ptr, ptr, [256 x i8], i32, i32, i32, ptr }
%struct.RegexExt = type { ptr, ptr, ptr, i32, i32, ptr }
%struct.Operation = type { ptr, %union.anon }
%union.anon = type { %struct.anon.0 }
%struct.anon.0 = type { ptr, i32 }
%struct.anon.1 = type { ptr, i32, i32 }
%struct.anon.2 = type { ptr }
%struct.anon.3 = type { ptr }
%struct.anon.4 = type { ptr, ptr }
%struct.anon.9 = type { %union.anon.10, i32, i32 }
%union.anon.10 = type { ptr }

; Function Attrs: nounwind uwtable
define internal i32 @is_in_string_pool(ptr noundef %0, ptr noundef %1) #0 {
  %3 = alloca ptr, align 8
  %4 = alloca ptr, align 8
  store ptr %0, ptr %3, align 8, !tbaa !8
  store ptr %1, ptr %4, align 8, !tbaa !23
  %5 = load ptr, ptr %4, align 8, !tbaa !23
  %6 = load ptr, ptr %3, align 8, !tbaa !8
  %7 = getelementptr inbounds nuw %struct.re_pattern_buffer, ptr %6, i32 0, i32 5
  %8 = load ptr, ptr %7, align 8, !tbaa !25
  %9 = icmp uge ptr %5, %8
  br i1 %9, label %10, label %16

10:                                               ; preds = %2
  %11 = load ptr, ptr %4, align 8, !tbaa !23
  %12 = load ptr, ptr %3, align 8, !tbaa !8
  %13 = getelementptr inbounds nuw %struct.re_pattern_buffer, ptr %12, i32 0, i32 6
  %14 = load ptr, ptr %13, align 8, !tbaa !26
  %15 = icmp ult ptr %11, %14
  br label %16

16:                                               ; preds = %10, %2
  %17 = phi i1 [ false, %2 ], [ %15, %10 ]
  %18 = zext i1 %17 to i32
  ret i32 %18
}

; Function Attrs: nounwind uwtable
define internal void @free_regex_ext(ptr noundef %0) #0 {
  %2 = alloca ptr, align 8
  store ptr %0, ptr %2, align 8, !tbaa !15
  %3 = load ptr, ptr %2, align 8, !tbaa !15
  %4 = icmp ne ptr %3, null
  br i1 %4, label %5, label %38

5:                                                ; preds = %1
  %6 = load ptr, ptr %2, align 8, !tbaa !15
  %7 = getelementptr inbounds nuw %struct.RegexExt, ptr %6, i32 0, i32 0
  %8 = load ptr, ptr %7, align 8, !tbaa !16
  %9 = icmp ne ptr %8, null
  br i1 %9, label %10, label %14

10:                                               ; preds = %5
  %11 = load ptr, ptr %2, align 8, !tbaa !15
  %12 = getelementptr inbounds nuw %struct.RegexExt, ptr %11, i32 0, i32 0
  %13 = load ptr, ptr %12, align 8, !tbaa !16
  call void @free(ptr noundef %13) #9
  br label %14

14:                                               ; preds = %10, %5
  %15 = load ptr, ptr %2, align 8, !tbaa !15
  %16 = getelementptr inbounds nuw %struct.RegexExt, ptr %15, i32 0, i32 2
  %17 = load ptr, ptr %16, align 8, !tbaa !19
  %18 = icmp ne ptr %17, null
  br i1 %18, label %19, label %24

19:                                               ; preds = %14
  %20 = load ptr, ptr %2, align 8, !tbaa !15
  %21 = getelementptr inbounds nuw %struct.RegexExt, ptr %20, i32 0, i32 2
  %22 = load ptr, ptr %21, align 8, !tbaa !19
  %23 = call i32 @onig_callout_tag_table_free(ptr noundef %22)
  br label %24

24:                                               ; preds = %19, %14
  %25 = load ptr, ptr %2, align 8, !tbaa !15
  %26 = getelementptr inbounds nuw %struct.RegexExt, ptr %25, i32 0, i32 5
  %27 = load ptr, ptr %26, align 8, !tbaa !22
  %28 = icmp ne ptr %27, null
  br i1 %28, label %29, label %36

29:                                               ; preds = %24
  %30 = load ptr, ptr %2, align 8, !tbaa !15
  %31 = getelementptr inbounds nuw %struct.RegexExt, ptr %30, i32 0, i32 3
  %32 = load i32, ptr %31, align 8, !tbaa !20
  %33 = load ptr, ptr %2, align 8, !tbaa !15
  %34 = getelementptr inbounds nuw %struct.RegexExt, ptr %33, i32 0, i32 5
  %35 = load ptr, ptr %34, align 8, !tbaa !22
  call void @onig_free_reg_callout_list(i32 noundef %32, ptr noundef %35)
  br label %36

36:                                               ; preds = %29, %24
  %37 = load ptr, ptr %2, align 8, !tbaa !15
  call void @free(ptr noundef %37) #9
  br label %38

38:                                               ; preds = %36, %1
  ret void
}

; Function Attrs: nounwind uwtable
define internal void @ops_free(ptr noundef %0) #0 {
  %2 = alloca ptr, align 8
  %3 = alloca i32, align 4
  %4 = alloca i32, align 4
  %5 = alloca i32, align 4
  %6 = alloca ptr, align 8
  store ptr %0, ptr %2, align 8, !tbaa !8
  call void @llvm.lifetime.start.p0(i64 4, ptr %3) #9
  %7 = load ptr, ptr %2, align 8, !tbaa !8
  %8 = getelementptr inbounds nuw %struct.re_pattern_buffer, ptr %7, i32 0, i32 0
  %9 = load ptr, ptr %8, align 8, !tbaa !29
  %10 = icmp eq ptr %9, null
  br i1 %10, label %11, label %12

11:                                               ; preds = %1
  store i32 1, ptr %4, align 4
  br label %117

12:                                               ; preds = %1
  store i32 0, ptr %3, align 4, !tbaa !4
  br label %13

13:                                               ; preds = %97, %12
  %14 = load i32, ptr %3, align 4, !tbaa !4
  %15 = load ptr, ptr %2, align 8, !tbaa !8
  %16 = getelementptr inbounds nuw %struct.re_pattern_buffer, ptr %15, i32 0, i32 3
  %17 = load i32, ptr %16, align 8, !tbaa !30
  %18 = icmp slt i32 %14, %17
  br i1 %18, label %19, label %100

19:                                               ; preds = %13
  call void @llvm.lifetime.start.p0(i64 4, ptr %5) #9
  call void @llvm.lifetime.start.p0(i64 8, ptr %6) #9
  %20 = load ptr, ptr %2, align 8, !tbaa !8
  %21 = getelementptr inbounds nuw %struct.re_pattern_buffer, ptr %20, i32 0, i32 0
  %22 = load ptr, ptr %21, align 8, !tbaa !29
  %23 = load i32, ptr %3, align 4, !tbaa !4
  %24 = sext i32 %23 to i64
  %25 = getelementptr inbounds %struct.Operation, ptr %22, i64 %24
  store ptr %25, ptr %6, align 8, !tbaa !15
  %26 = load ptr, ptr %2, align 8, !tbaa !8
  %27 = getelementptr inbounds nuw %struct.re_pattern_buffer, ptr %26, i32 0, i32 1
  %28 = load ptr, ptr %27, align 8, !tbaa !31
  %29 = load i32, ptr %3, align 4, !tbaa !4
  %30 = sext i32 %29 to i64
  %31 = getelementptr inbounds i32, ptr %28, i64 %30
  %32 = load i32, ptr %31, align 4, !tbaa !4
  store i32 %32, ptr %5, align 4, !tbaa !4
  %33 = load i32, ptr %5, align 4, !tbaa !4
  switch i32 %33, label %95 [
    i32 13, label %34
    i32 7, label %48
    i32 11, label %48
    i32 12, label %48
    i32 2, label %62
    i32 3, label %62
    i32 4, label %62
    i32 5, label %62
    i32 6, label %62
    i32 8, label %62
    i32 9, label %62
    i32 10, label %62
    i32 17, label %63
    i32 14, label %63
    i32 18, label %68
    i32 15, label %68
    i32 19, label %73
    i32 16, label %73
    i32 41, label %82
    i32 42, label %82
    i32 43, label %82
    i32 44, label %82
    i32 45, label %83
    i32 46, label %83
    i32 49, label %83
    i32 47, label %83
    i32 48, label %83
    i32 50, label %83
  ]

34:                                               ; preds = %19
  %35 = load ptr, ptr %2, align 8, !tbaa !8
  %36 = load ptr, ptr %6, align 8, !tbaa !15
  %37 = getelementptr inbounds nuw %struct.Operation, ptr %36, i32 0, i32 1
  %38 = getelementptr inbounds nuw %struct.anon.1, ptr %37, i32 0, i32 0
  %39 = load ptr, ptr %38, align 8, !tbaa !32
  %40 = call i32 @is_in_string_pool(ptr noundef %35, ptr noundef %39)
  %41 = icmp ne i32 %40, 0
  br i1 %41, label %47, label %42

42:                                               ; preds = %34
  %43 = load ptr, ptr %6, align 8, !tbaa !15
  %44 = getelementptr inbounds nuw %struct.Operation, ptr %43, i32 0, i32 1
  %45 = getelementptr inbounds nuw %struct.anon.1, ptr %44, i32 0, i32 0
  %46 = load ptr, ptr %45, align 8, !tbaa !32
  call void @free(ptr noundef %46) #9
  br label %47

47:                                               ; preds = %42, %34
  br label %96

48:                                               ; preds = %19, %19, %19
  %49 = load ptr, ptr %2, align 8, !tbaa !8
  %50 = load ptr, ptr %6, align 8, !tbaa !15
  %51 = getelementptr inbounds nuw %struct.Operation, ptr %50, i32 0, i32 1
  %52 = getelementptr inbounds nuw %struct.anon.0, ptr %51, i32 0, i32 0
  %53 = load ptr, ptr %52, align 8, !tbaa !32
  %54 = call i32 @is_in_string_pool(ptr noundef %49, ptr noundef %53)
  %55 = icmp ne i32 %54, 0
  br i1 %55, label %61, label %56

56:                                               ; preds = %48
  %57 = load ptr, ptr %6, align 8, !tbaa !15
  %58 = getelementptr inbounds nuw %struct.Operation, ptr %57, i32 0, i32 1
  %59 = getelementptr inbounds nuw %struct.anon.0, ptr %58, i32 0, i32 0
  %60 = load ptr, ptr %59, align 8, !tbaa !32
  call void @free(ptr noundef %60) #9
  br label %61

61:                                               ; preds = %56, %48
  br label %96

62:                                               ; preds = %19, %19, %19, %19, %19, %19, %19, %19
  br label %96

63:                                               ; preds = %19, %19
  %64 = load ptr, ptr %6, align 8, !tbaa !15
  %65 = getelementptr inbounds nuw %struct.Operation, ptr %64, i32 0, i32 1
  %66 = getelementptr inbounds nuw %struct.anon.2, ptr %65, i32 0, i32 0
  %67 = load ptr, ptr %66, align 8, !tbaa !32
  call void @free(ptr noundef %67) #9
  br label %96

68:                                               ; preds = %19, %19
  %69 = load ptr, ptr %6, align 8, !tbaa !15
  %70 = getelementptr inbounds nuw %struct.Operation, ptr %69, i32 0, i32 1
  %71 = getelementptr inbounds nuw %struct.anon.3, ptr %70, i32 0, i32 0
  %72 = load ptr, ptr %71, align 8, !tbaa !32
  call void @free(ptr noundef %72) #9
  br label %96

73:                                               ; preds = %19, %19
  %74 = load ptr, ptr %6, align 8, !tbaa !15
  %75 = getelementptr inbounds nuw %struct.Operation, ptr %74, i32 0, i32 1
  %76 = getelementptr inbounds nuw %struct.anon.4, ptr %75, i32 0, i32 0
  %77 = load ptr, ptr %76, align 8, !tbaa !32
  call void @free(ptr noundef %77) #9
  %78 = load ptr, ptr %6, align 8, !tbaa !15
  %79 = getelementptr inbounds nuw %struct.Operation, ptr %78, i32 0, i32 1
  %80 = getelementptr inbounds nuw %struct.anon.4, ptr %79, i32 0, i32 1
  %81 = load ptr, ptr %80, align 8, !tbaa !32
  call void @free(ptr noundef %81) #9
  br label %96

82:                                               ; preds = %19, %19, %19, %19
  br label %96

83:                                               ; preds = %19, %19, %19, %19, %19, %19
  %84 = load ptr, ptr %6, align 8, !tbaa !15
  %85 = getelementptr inbounds nuw %struct.Operation, ptr %84, i32 0, i32 1
  %86 = getelementptr inbounds nuw %struct.anon.9, ptr %85, i32 0, i32 1
  %87 = load i32, ptr %86, align 8, !tbaa !32
  %88 = icmp ne i32 %87, 1
  br i1 %88, label %89, label %94

89:                                               ; preds = %83
  %90 = load ptr, ptr %6, align 8, !tbaa !15
  %91 = getelementptr inbounds nuw %struct.Operation, ptr %90, i32 0, i32 1
  %92 = getelementptr inbounds nuw %struct.anon.9, ptr %91, i32 0, i32 0
  %93 = load ptr, ptr %92, align 8, !tbaa !32
  call void @free(ptr noundef %93) #9
  br label %94

94:                                               ; preds = %89, %83
  br label %96

95:                                               ; preds = %19
  br label %96

96:                                               ; preds = %95, %94, %82, %73, %68, %63, %62, %61, %47
  call void @llvm.lifetime.end.p0(i64 8, ptr %6) #9
  call void @llvm.lifetime.end.p0(i64 4, ptr %5) #9
  br label %97

97:                                               ; preds = %96
  %98 = load i32, ptr %3, align 4, !tbaa !4
  %99 = add nsw i32 %98, 1
  store i32 %99, ptr %3, align 4, !tbaa !4
  br label %13, !llvm.loop !33

100:                                              ; preds = %13
  %101 = load ptr, ptr %2, align 8, !tbaa !8
  %102 = getelementptr inbounds nuw %struct.re_pattern_buffer, ptr %101, i32 0, i32 0
  %103 = load ptr, ptr %102, align 8, !tbaa !29
  call void @free(ptr noundef %103) #9
  %104 = load ptr, ptr %2, align 8, !tbaa !8
  %105 = getelementptr inbounds nuw %struct.re_pattern_buffer, ptr %104, i32 0, i32 1
  %106 = load ptr, ptr %105, align 8, !tbaa !31
  call void @free(ptr noundef %106) #9
  %107 = load ptr, ptr %2, align 8, !tbaa !8
  %108 = getelementptr inbounds nuw %struct.re_pattern_buffer, ptr %107, i32 0, i32 1
  store ptr null, ptr %108, align 8, !tbaa !31
  %109 = load ptr, ptr %2, align 8, !tbaa !8
  %110 = getelementptr inbounds nuw %struct.re_pattern_buffer, ptr %109, i32 0, i32 0
  store ptr null, ptr %110, align 8, !tbaa !29
  %111 = load ptr, ptr %2, align 8, !tbaa !8
  %112 = getelementptr inbounds nuw %struct.re_pattern_buffer, ptr %111, i32 0, i32 2
  store ptr null, ptr %112, align 8, !tbaa !35
  %113 = load ptr, ptr %2, align 8, !tbaa !8
  %114 = getelementptr inbounds nuw %struct.re_pattern_buffer, ptr %113, i32 0, i32 4
  store i32 0, ptr %114, align 4, !tbaa !36
  %115 = load ptr, ptr %2, align 8, !tbaa !8
  %116 = getelementptr inbounds nuw %struct.re_pattern_buffer, ptr %115, i32 0, i32 3
  store i32 0, ptr %116, align 8, !tbaa !30
  store i32 0, ptr %4, align 4
  br label %117

117:                                              ; preds = %100, %11
  call void @llvm.lifetime.end.p0(i64 4, ptr %3) #9
  %118 = load i32, ptr %4, align 4
  switch i32 %118, label %120 [
    i32 0, label %119
    i32 1, label %119
  ]

119:                                              ; preds = %117, %117
  ret void

120:                                              ; preds = %117
  unreachable
}

; Function Attrs: nounwind uwtable
define dso_local void @onig_free_body(ptr noundef %0) #0 {
  %2 = alloca ptr, align 8
  store ptr %0, ptr %2, align 8, !tbaa !8
  %3 = load ptr, ptr %2, align 8, !tbaa !8
  %4 = icmp ne ptr %3, null
  br i1 %4, label %5, label %51

5:                                                ; preds = %1
  %6 = load ptr, ptr %2, align 8, !tbaa !8
  call void @ops_free(ptr noundef %6)
  %7 = load ptr, ptr %2, align 8, !tbaa !8
  %8 = getelementptr inbounds nuw %struct.re_pattern_buffer, ptr %7, i32 0, i32 5
  %9 = load ptr, ptr %8, align 8, !tbaa !25
  %10 = icmp ne ptr %9, null
  br i1 %10, label %11, label %19

11:                                               ; preds = %5
  %12 = load ptr, ptr %2, align 8, !tbaa !8
  %13 = getelementptr inbounds nuw %struct.re_pattern_buffer, ptr %12, i32 0, i32 5
  %14 = load ptr, ptr %13, align 8, !tbaa !25
  call void @free(ptr noundef %14) #9
  %15 = load ptr, ptr %2, align 8, !tbaa !8
  %16 = getelementptr inbounds nuw %struct.re_pattern_buffer, ptr %15, i32 0, i32 5
  store ptr null, ptr %16, align 8, !tbaa !25
  %17 = load ptr, ptr %2, align 8, !tbaa !8
  %18 = getelementptr inbounds nuw %struct.re_pattern_buffer, ptr %17, i32 0, i32 6
  store ptr null, ptr %18, align 8, !tbaa !26
  br label %19

19:                                               ; preds = %11, %5
  %20 = load ptr, ptr %2, align 8, !tbaa !8
  %21 = getelementptr inbounds nuw %struct.re_pattern_buffer, ptr %20, i32 0, i32 28
  %22 = load ptr, ptr %21, align 8, !tbaa !27
  %23 = icmp ne ptr %22, null
  br i1 %23, label %24, label %28

24:                                               ; preds = %19
  %25 = load ptr, ptr %2, align 8, !tbaa !8
  %26 = getelementptr inbounds nuw %struct.re_pattern_buffer, ptr %25, i32 0, i32 28
  %27 = load ptr, ptr %26, align 8, !tbaa !27
  call void @free(ptr noundef %27) #9
  br label %28

28:                                               ; preds = %24, %19
  %29 = load ptr, ptr %2, align 8, !tbaa !8
  %30 = getelementptr inbounds nuw %struct.re_pattern_buffer, ptr %29, i32 0, i32 16
  %31 = load ptr, ptr %30, align 8, !tbaa !28
  %32 = icmp ne ptr %31, null
  br i1 %32, label %33, label %37

33:                                               ; preds = %28
  %34 = load ptr, ptr %2, align 8, !tbaa !8
  %35 = getelementptr inbounds nuw %struct.re_pattern_buffer, ptr %34, i32 0, i32 16
  %36 = load ptr, ptr %35, align 8, !tbaa !28
  call void @free(ptr noundef %36) #9
  br label %37

37:                                               ; preds = %33, %28
  %38 = load ptr, ptr %2, align 8, !tbaa !8
  %39 = getelementptr inbounds nuw %struct.re_pattern_buffer, ptr %38, i32 0, i32 34
  %40 = load ptr, ptr %39, align 8, !tbaa !11
  %41 = icmp ne ptr %40, null
  br i1 %41, label %42, label %48

42:                                               ; preds = %37
  %43 = load ptr, ptr %2, align 8, !tbaa !8
  %44 = getelementptr inbounds nuw %struct.re_pattern_buffer, ptr %43, i32 0, i32 34
  %45 = load ptr, ptr %44, align 8, !tbaa !11
  call void @free_regex_ext(ptr noundef %45)
  %46 = load ptr, ptr %2, align 8, !tbaa !8
  %47 = getelementptr inbounds nuw %struct.re_pattern_buffer, ptr %46, i32 0, i32 34
  store ptr null, ptr %47, align 8, !tbaa !11
  br label %48

48:                                               ; preds = %42, %37
  %49 = load ptr, ptr %2, align 8, !tbaa !8
  %50 = call i32 @onig_names_free(ptr noundef %49)
  br label %51

51:                                               ; preds = %48, %1
  ret void
}